; Function Attrs: nounwind uwtable
define dso_local noundef ptr @create_shadow_buf(ptr noundef %0, i32 noundef %1) #0 {
  %3 = icmp ugt i32 %1, -65536
  br i1 %3, label %create_buf.exit.thread, label %5

create_buf.exit.thread:                           ; preds = %2
  %4 = tail call i32 (ptr, ...) @error(ptr noundef nonnull @.str, ptr noundef nonnull @__func__.create_buf, i32 noundef %1, i32 noundef -65536) #14
  br label %12

5:                                                ; preds = %2
  %6 = tail call ptr @slurm_xcalloc(i64 noundef 1, i64 noundef 32, i1 noundef zeroext true, i1 noundef zeroext false, ptr noundef nonnull @.str.1, i32 noundef 125, ptr noundef nonnull @__func__.create_buf) #14
  store i32 1112884549, ptr %6, align 8
  %7 = getelementptr inbounds nuw i8, ptr %6, i64 16
  store i32 %1, ptr %7, align 8
  %8 = getelementptr inbounds nuw i8, ptr %6, i64 20
  store i32 0, ptr %8, align 4
  %9 = getelementptr inbounds nuw i8, ptr %6, i64 8
  store ptr %0, ptr %9, align 8
  %10 = getelementptr inbounds nuw i8, ptr %6, i64 24
  store i8 0, ptr %10, align 8
  %11 = getelementptr inbounds nuw i8, ptr %6, i64 25
  store i8 1, ptr %11, align 1
  br label %12

12:                                               ; preds = %create_buf.exit.thread, %5
  %.0.i6 = phi ptr [ null, %create_buf.exit.thread ], [ %6, %5 ]
  ret ptr %.0.i6
}